Certificate Request:
    Data:
        Version: 0 (0x0)
        Subject: C=ZA, ST=Gauteng, L=Pretoria, O=Sub-Saharan Widgets Corporation, OU=21st Century Department, CN=subsaharanwidgets.com/emailAddress=nobody@subsaharanwidgets.com
        Subject Public Key Info:
            Public Key Algorithm: id-ecPublicKey
                Public-Key: (256 bit)
                pub: 
                    04:84:25:d6:a2:d0:91:8a:0b:9d:7e:82:51:29:29:
                    fc:61:d7:31:00:d9:31:62:39:1c:0a:72:65:20:94:
                    d8:c0:28:60:03:44:db:e4:e8:42:2e:a5:e4:36:ff:
                    2d:13:12:b7:c2:9c:a8:af:10:2d:af:07:02:ba:08:
                    7f:37:ce:1f:bc
                ASN1 OID: prime256v1
                NIST CURVE: P-256
        Attributes:
    Signature Algorithm: ecdsa-with-SHA256
         30:45:02:20:10:3a:61:7d:86:47:e7:51:ba:66:3f:14:a7:cb:
         b7:e9:37:be:b9:22:8e:6b:ff:24:be:91:b9:50:4e:15:35:2d:
         02:21:00:e6:9a:55:21:3f:30:96:96:2a:5c:9f:dc:60:bf:44:
         9d:8d:ef:98:02:d6:17:fe:d0:2c:ae:f4:4a:02:84:a2:61
-----BEGIN CERTIFICATE REQUEST-----
MIIBlzCCAT0CAQAwgcsxCzAJBgNVBAYTAlpBMRAwDgYDVQQIDAdHYXV0ZW5nMREw
DwYDVQQHDAhQcmV0b3JpYTEoMCYGA1UECgwfU3ViLVNhaGFyYW4gV2lkZ2V0cyBD
b3Jwb3JhdGlvbjEgMB4GA1UECwwXMjFzdCBDZW50dXJ5IERlcGFydG1lbnQxHjAc
BgNVBAMMFXN1YnNhaGFyYW53aWRnZXRzLmNvbTErMCkGCSqGSIb3DQEJARYcbm9i
b2R5QHN1YnNhaGFyYW53aWRnZXRzLmNvbTBZMBMGByqGSM49AgEGCCqGSM49AwEH
A0IABIQl1qLQkYoLnX6CUSkp/GHXMQDZMWI5HApyZSCU2MAoYANE2+ToQi6l5Db/
LRMSt8KcqK8QLa8HAroIfzfOH7ygDzANBgkqhkiG9w0BCQ4xADAKBggqhkjOPQQD
AgNIADBFAiAQOmF9hkfnUbpmPxSny7fpN765Io5r/yS+kblQThU1LQIhAOaaVSE/
MJaWKlyf3GC/RJ2N75gC1hf+0Cyu9EoChKJh
-----END CERTIFICATE REQUEST-----
