Certificate:
    Data:
        Version: 3 (0x2)
        Serial Number: 4 (0x4)
    Signature Algorithm: sha256WithRSAEncryption
        Issuer: C=US, ST=California, O=World Widget Authority, OU=Identity Affairs, CN=worldwidgetauthority.com/emailAddress=nobody@worldwidgetauthority.com
        Validity
            Not Before: Jul 23 18:56:47 2020 GMT
            Not After : Jun 30 07:37:21 2040 GMT
        Subject: C=ZA, ST=Gauteng, O=Sub-Saharan Widgets Corporation, OU=21st Century Department, CN=subsaharanwidgets.com/emailAddress=nobody@subsaharanwidgets.com
        Subject Public Key Info:
            Public Key Algorithm: id-ecPublicKey
                Public-Key: (256 bit)
                pub: 
                    04:84:25:d6:a2:d0:91:8a:0b:9d:7e:82:51:29:29:
                    fc:61:d7:31:00:d9:31:62:39:1c:0a:72:65:20:94:
                    d8:c0:28:60:03:44:db:e4:e8:42:2e:a5:e4:36:ff:
                    2d:13:12:b7:c2:9c:a8:af:10:2d:af:07:02:ba:08:
                    7f:37:ce:1f:bc
                ASN1 OID: prime256v1
                NIST CURVE: P-256
        X509v3 extensions:
            X509v3 Basic Constraints: 
                CA:FALSE
            Netscape Comment: 
                This is a test certificate only
            X509v3 Subject Key Identifier: 
                01:27:7C:0E:46:3D:5B:DA:40:EF:37:5B:B6:B4:4A:30:58:A8:4C:76
            X509v3 Authority Key Identifier: 
                keyid:7C:0F:26:9D:ED:C8:7A:C0:05:1E:99:A3:5D:A5:9E:8D:A6:A6:96:5E

    Signature Algorithm: sha256WithRSAEncryption
         4c:66:23:bd:22:0d:20:f4:d1:ce:ad:f6:55:ff:9e:6c:e5:fb:
         09:08:e6:2f:ad:a7:db:85:67:a8:d5:c6:1c:83:6c:8f:68:7c:
         8f:3e:f6:bd:d8:17:85:79:5b:6f:e6:57:c8:9e:12:13:e0:9f:
         88:ee:d5:75:66:fc:95:92:f9:7c
-----BEGIN CERTIFICATE-----
MIIC1jCCAoCgAwIBAgIBBDANBgkqhkiG9w0BAQsFADCBsTELMAkGA1UEBhMCVVMx
EzARBgNVBAgMCkNhbGlmb3JuaWExHzAdBgNVBAoMFldvcmxkIFdpZGdldCBBdXRo
b3JpdHkxGTAXBgNVBAsMEElkZW50aXR5IEFmZmFpcnMxITAfBgNVBAMMGHdvcmxk
d2lkZ2V0YXV0aG9yaXR5LmNvbTEuMCwGCSqGSIb3DQEJARYfbm9ib2R5QHdvcmxk
d2lkZ2V0YXV0aG9yaXR5LmNvbTAeFw0yMDA3MjMxODU2NDdaFw00MDA2MzAwNzM3
MjFaMIG4MQswCQYDVQQGEwJaQTEQMA4GA1UECAwHR2F1dGVuZzEoMCYGA1UECgwf
U3ViLVNhaGFyYW4gV2lkZ2V0cyBDb3Jwb3JhdGlvbjEgMB4GA1UECwwXMjFzdCBD
ZW50dXJ5IERlcGFydG1lbnQxHjAcBgNVBAMMFXN1YnNhaGFyYW53aWRnZXRzLmNv
bTErMCkGCSqGSIb3DQEJARYcbm9ib2R5QHN1YnNhaGFyYW53aWRnZXRzLmNvbTBZ
MBMGByqGSM49AgEGCCqGSM49AwEHA0IABIQl1qLQkYoLnX6CUSkp/GHXMQDZMWI5
HApyZSCU2MAoYANE2+ToQi6l5Db/LRMSt8KcqK8QLa8HAroIfzfOH7yjfTB7MAkG
A1UdEwQCMAAwLgYJYIZIAYb4QgENBCEWH1RoaXMgaXMgYSB0ZXN0IGNlcnRpZmlj
YXRlIG9ubHkwHQYDVR0OBBYEFAEnfA5GPVvaQO83W7a0SjBYqEx2MB8GA1UdIwQY
MBaAFHwPJp3tyHrABR6Zo12lno2mppZeMA0GCSqGSIb3DQEBCwUAA0EATGYjvSIN
IPTRzq32Vf+ebOX7CQjmL62n24VnqNXGHINsj2h8jz72vdgXhXlbb+ZXyJ4SE+Cf
iO7VdWb8lZL5fA==
-----END CERTIFICATE-----
